target datalayout = "e-m:e-p270:32:32-p271:32:32-p272:64:64-i64:64-i128:128-f80:128-n8:16:32:64-S128"
target triple = "x86_64-pc-linux-gnu"

%struct.ImageFormat = type { [4 x i32], [4 x i32], i32, i32, i32, ptr, i32, i32, ptr, i32, ptr }

; Function Attrs: nounwind uwtable
define internal i32 @getRGBA(ptr noundef %0, ptr noundef %1) #0 {
  %3 = alloca i32, align 4
  %4 = alloca ptr, align 8
  %5 = alloca ptr, align 8
  %6 = alloca i32, align 4
  store ptr %0, ptr %4, align 8
  store ptr %1, ptr %5, align 8
  store i32 0, ptr %6, align 4
  %7 = load ptr, ptr %5, align 8
  %8 = getelementptr inbounds %struct.ImageFormat, ptr %7, i32 0, i32 3
  %9 = load i32, ptr %8, align 4
  switch i32 %9, label %106 [
    i32 0, label %10
    i32 1, label %51
    i32 2, label %89
  ]

10:                                               ; preds = %2
  %11 = load ptr, ptr %5, align 8
  %12 = getelementptr inbounds %struct.ImageFormat, ptr %11, i32 0, i32 2
  %13 = load i32, ptr %12, align 8
  switch i32 %13, label %50 [
    i32 4, label %14
    i32 3, label %24
    i32 2, label %34
    i32 1, label %44
  ]

14:                                               ; preds = %10
  %15 = load ptr, ptr %4, align 8
  %16 = load i8, ptr %15, align 1
  %17 = zext i8 %16 to i32
  %18 = load i32, ptr %6, align 4
  %19 = or i32 %18, %17
  store i32 %19, ptr %6, align 4
  %20 = load i32, ptr %6, align 4
  %21 = shl i32 %20, 8
  store i32 %21, ptr %6, align 4
  %22 = load ptr, ptr %4, align 8
  %23 = getelementptr inbounds i8, ptr %22, i64 1
  store ptr %23, ptr %4, align 8
  br label %24

24:                                               ; preds = %14, %10
  %25 = load ptr, ptr %4, align 8
  %26 = load i8, ptr %25, align 1
  %27 = zext i8 %26 to i32
  %28 = load i32, ptr %6, align 4
  %29 = or i32 %28, %27
  store i32 %29, ptr %6, align 4
  %30 = load i32, ptr %6, align 4
  %31 = shl i32 %30, 8
  store i32 %31, ptr %6, align 4
  %32 = load ptr, ptr %4, align 8
  %33 = getelementptr inbounds i8, ptr %32, i64 1
  store ptr %33, ptr %4, align 8
  br label %34

34:                                               ; preds = %24, %10
  %35 = load ptr, ptr %4, align 8
  %36 = load i8, ptr %35, align 1
  %37 = zext i8 %36 to i32
  %38 = load i32, ptr %6, align 4
  %39 = or i32 %38, %37
  store i32 %39, ptr %6, align 4
  %40 = load i32, ptr %6, align 4
  %41 = shl i32 %40, 8
  store i32 %41, ptr %6, align 4
  %42 = load ptr, ptr %4, align 8
  %43 = getelementptr inbounds i8, ptr %42, i64 1
  store ptr %43, ptr %4, align 8
  br label %44

44:                                               ; preds = %34, %10
  %45 = load ptr, ptr %4, align 8
  %46 = load i8, ptr %45, align 1
  %47 = zext i8 %46 to i32
  %48 = load i32, ptr %6, align 4
  %49 = or i32 %48, %47
  store i32 %49, ptr %6, align 4
  br label %50

50:                                               ; preds = %44, %10
  br label %106

51:                                               ; preds = %2
  %52 = load ptr, ptr %5, align 8
  %53 = getelementptr inbounds %struct.ImageFormat, ptr %52, i32 0, i32 2
  %54 = load i32, ptr %53, align 8
  switch i32 %54, label %88 [
    i32 4, label %55
    i32 3, label %64
    i32 2, label %73
    i32 1, label %82
  ]

55:                                               ; preds = %51
  %56 = load ptr, ptr %4, align 8
  %57 = load i8, ptr %56, align 1
  %58 = zext i8 %57 to i32
  %59 = shl i32 %58, 24
  %60 = load i32, ptr %6, align 4
  %61 = or i32 %60, %59
  store i32 %61, ptr %6, align 4
  %62 = load ptr, ptr %4, align 8
  %63 = getelementptr inbounds i8, ptr %62, i64 1
  store ptr %63, ptr %4, align 8
  br label %64

64:                                               ; preds = %55, %51
  %65 = load ptr, ptr %4, align 8
  %66 = load i8, ptr %65, align 1
  %67 = zext i8 %66 to i32
  %68 = shl i32 %67, 16
  %69 = load i32, ptr %6, align 4
  %70 = or i32 %69, %68
  store i32 %70, ptr %6, align 4
  %71 = load ptr, ptr %4, align 8
  %72 = getelementptr inbounds i8, ptr %71, i64 1
  store ptr %72, ptr %4, align 8
  br label %73

73:                                               ; preds = %64, %51
  %74 = load ptr, ptr %4, align 8
  %75 = load i8, ptr %74, align 1
  %76 = zext i8 %75 to i32
  %77 = shl i32 %76, 8
  %78 = load i32, ptr %6, align 4
  %79 = or i32 %78, %77
  store i32 %79, ptr %6, align 4
  %80 = load ptr, ptr %4, align 8
  %81 = getelementptr inbounds i8, ptr %80, i64 1
  store ptr %81, ptr %4, align 8
  br label %82

82:                                               ; preds = %73, %51
  %83 = load ptr, ptr %4, align 8
  %84 = load i8, ptr %83, align 1
  %85 = zext i8 %84 to i32
  %86 = load i32, ptr %6, align 4
  %87 = or i32 %86, %85
  store i32 %87, ptr %6, align 4
  br label %88

88:                                               ; preds = %82, %51
  br label %106

89:                                               ; preds = %2
  %90 = load ptr, ptr %5, align 8
  %91 = getelementptr inbounds %struct.ImageFormat, ptr %90, i32 0, i32 2
  %92 = load i32, ptr %91, align 8
  switch i32 %92, label %105 [
    i32 4, label %93
    i32 3, label %96
    i32 2, label %97
    i32 1, label %101
  ]

93:                                               ; preds = %89
  %94 = load ptr, ptr %4, align 8
  %95 = load i32, ptr %94, align 4
  store i32 %95, ptr %6, align 4
  br label %105

96:                                               ; preds = %89
  store i32 -1, ptr %6, align 4
  br label %105

97:                                               ; preds = %89
  %98 = load ptr, ptr %4, align 8
  %99 = load i16, ptr %98, align 2
  %100 = zext i16 %99 to i32
  store i32 %100, ptr %6, align 4
  br label %105

101:                                              ; preds = %89
  %102 = load ptr, ptr %4, align 8
  %103 = load i8, ptr %102, align 1
  %104 = zext i8 %103 to i32
  store i32 %104, ptr %6, align 4
  br label %105

105:                                              ; preds = %101, %97, %96, %93, %89
  br label %106

106:                                              ; preds = %105, %88, %50, %2
  %107 = load ptr, ptr %5, align 8
  %108 = getelementptr inbounds %struct.ImageFormat, ptr %107, i32 0, i32 5
  %109 = load ptr, ptr %108, align 8
  %110 = icmp ne ptr %109, null
  br i1 %110, label %111, label %126

111:                                              ; preds = %106
  %112 = load i32, ptr %6, align 4
  %113 = load ptr, ptr %5, align 8
  %114 = getelementptr inbounds %struct.ImageFormat, ptr %113, i32 0, i32 6
  %115 = load i32, ptr %114, align 8
  %116 = icmp eq i32 %112, %115
  br i1 %116, label %117, label %118

117:                                              ; preds = %111
  store i32 0, ptr %3, align 4
  br label %282

118:                                              ; preds = %111
  %119 = load ptr, ptr %5, align 8
  %120 = getelementptr inbounds %struct.ImageFormat, ptr %119, i32 0, i32 5
  %121 = load ptr, ptr %120, align 8
  %122 = load i32, ptr %6, align 4
  %123 = zext i32 %122 to i64
  %124 = getelementptr inbounds i32, ptr %121, i64 %123
  %125 = load i32, ptr %124, align 4
  store i32 %125, ptr %3, align 4
  br label %282

126:                                              ; preds = %106
  %127 = load ptr, ptr %5, align 8
  %128 = getelementptr inbounds %struct.ImageFormat, ptr %127, i32 0, i32 1
  %129 = getelementptr inbounds [4 x i32], ptr %128, i64 0, i64 0
  %130 = load i32, ptr %129, align 8
  %131 = ashr i32 %130, 31
  %132 = load i32, ptr %6, align 4
  %133 = load ptr, ptr %5, align 8
  %134 = getelementptr inbounds %struct.ImageFormat, ptr %133, i32 0, i32 0
  %135 = getelementptr inbounds [4 x i32], ptr %134, i64 0, i64 0
  %136 = load i32, ptr %135, align 8
  %137 = and i32 %132, %136
  %138 = load ptr, ptr %5, align 8
  %139 = getelementptr inbounds %struct.ImageFormat, ptr %138, i32 0, i32 1
  %140 = getelementptr inbounds [4 x i32], ptr %139, i64 0, i64 0
  %141 = load i32, ptr %140, align 8
  %142 = sub nsw i32 0, %141
  %143 = shl i32 %137, %142
  %144 = and i32 %131, %143
  %145 = load ptr, ptr %5, align 8
  %146 = getelementptr inbounds %struct.ImageFormat, ptr %145, i32 0, i32 1
  %147 = getelementptr inbounds [4 x i32], ptr %146, i64 0, i64 0
  %148 = load i32, ptr %147, align 8
  %149 = ashr i32 %148, 31
  %150 = xor i32 %149, -1
  %151 = load i32, ptr %6, align 4
  %152 = load ptr, ptr %5, align 8
  %153 = getelementptr inbounds %struct.ImageFormat, ptr %152, i32 0, i32 0
  %154 = getelementptr inbounds [4 x i32], ptr %153, i64 0, i64 0
  %155 = load i32, ptr %154, align 8
  %156 = and i32 %151, %155
  %157 = load ptr, ptr %5, align 8
  %158 = getelementptr inbounds %struct.ImageFormat, ptr %157, i32 0, i32 1
  %159 = getelementptr inbounds [4 x i32], ptr %158, i64 0, i64 0
  %160 = load i32, ptr %159, align 8
  %161 = lshr i32 %156, %160
  %162 = and i32 %150, %161
  %163 = or i32 %144, %162
  %164 = load ptr, ptr %5, align 8
  %165 = getelementptr inbounds %struct.ImageFormat, ptr %164, i32 0, i32 1
  %166 = getelementptr inbounds [4 x i32], ptr %165, i64 0, i64 1
  %167 = load i32, ptr %166, align 4
  %168 = ashr i32 %167, 31
  %169 = load i32, ptr %6, align 4
  %170 = load ptr, ptr %5, align 8
  %171 = getelementptr inbounds %struct.ImageFormat, ptr %170, i32 0, i32 0
  %172 = getelementptr inbounds [4 x i32], ptr %171, i64 0, i64 1
  %173 = load i32, ptr %172, align 4
  %174 = and i32 %169, %173
  %175 = load ptr, ptr %5, align 8
  %176 = getelementptr inbounds %struct.ImageFormat, ptr %175, i32 0, i32 1
  %177 = getelementptr inbounds [4 x i32], ptr %176, i64 0, i64 1
  %178 = load i32, ptr %177, align 4
  %179 = sub nsw i32 0, %178
  %180 = shl i32 %174, %179
  %181 = and i32 %168, %180
  %182 = load ptr, ptr %5, align 8
  %183 = getelementptr inbounds %struct.ImageFormat, ptr %182, i32 0, i32 1
  %184 = getelementptr inbounds [4 x i32], ptr %183, i64 0, i64 1
  %185 = load i32, ptr %184, align 4
  %186 = ashr i32 %185, 31
  %187 = xor i32 %186, -1
  %188 = load i32, ptr %6, align 4
  %189 = load ptr, ptr %5, align 8
  %190 = getelementptr inbounds %struct.ImageFormat, ptr %189, i32 0, i32 0
  %191 = getelementptr inbounds [4 x i32], ptr %190, i64 0, i64 1
  %192 = load i32, ptr %191, align 4
  %193 = and i32 %188, %192
  %194 = load ptr, ptr %5, align 8
  %195 = getelementptr inbounds %struct.ImageFormat, ptr %194, i32 0, i32 1
  %196 = getelementptr inbounds [4 x i32], ptr %195, i64 0, i64 1
  %197 = load i32, ptr %196, align 4
  %198 = lshr i32 %193, %197
  %199 = and i32 %187, %198
  %200 = or i32 %181, %199
  %201 = or i32 %163, %200
  %202 = load ptr, ptr %5, align 8
  %203 = getelementptr inbounds %struct.ImageFormat, ptr %202, i32 0, i32 1
  %204 = getelementptr inbounds [4 x i32], ptr %203, i64 0, i64 2
  %205 = load i32, ptr %204, align 8
  %206 = ashr i32 %205, 31
  %207 = load i32, ptr %6, align 4
  %208 = load ptr, ptr %5, align 8
  %209 = getelementptr inbounds %struct.ImageFormat, ptr %208, i32 0, i32 0
  %210 = getelementptr inbounds [4 x i32], ptr %209, i64 0, i64 2
  %211 = load i32, ptr %210, align 8
  %212 = and i32 %207, %211
  %213 = load ptr, ptr %5, align 8
  %214 = getelementptr inbounds %struct.ImageFormat, ptr %213, i32 0, i32 1
  %215 = getelementptr inbounds [4 x i32], ptr %214, i64 0, i64 2
  %216 = load i32, ptr %215, align 8
  %217 = sub nsw i32 0, %216
  %218 = shl i32 %212, %217
  %219 = and i32 %206, %218
  %220 = load ptr, ptr %5, align 8
  %221 = getelementptr inbounds %struct.ImageFormat, ptr %220, i32 0, i32 1
  %222 = getelementptr inbounds [4 x i32], ptr %221, i64 0, i64 2
  %223 = load i32, ptr %222, align 8
  %224 = ashr i32 %223, 31
  %225 = xor i32 %224, -1
  %226 = load i32, ptr %6, align 4
  %227 = load ptr, ptr %5, align 8
  %228 = getelementptr inbounds %struct.ImageFormat, ptr %227, i32 0, i32 0
  %229 = getelementptr inbounds [4 x i32], ptr %228, i64 0, i64 2
  %230 = load i32, ptr %229, align 8
  %231 = and i32 %226, %230
  %232 = load ptr, ptr %5, align 8
  %233 = getelementptr inbounds %struct.ImageFormat, ptr %232, i32 0, i32 1
  %234 = getelementptr inbounds [4 x i32], ptr %233, i64 0, i64 2
  %235 = load i32, ptr %234, align 8
  %236 = lshr i32 %231, %235
  %237 = and i32 %225, %236
  %238 = or i32 %219, %237
  %239 = or i32 %201, %238
  %240 = load ptr, ptr %5, align 8
  %241 = getelementptr inbounds %struct.ImageFormat, ptr %240, i32 0, i32 1
  %242 = getelementptr inbounds [4 x i32], ptr %241, i64 0, i64 3
  %243 = load i32, ptr %242, align 4
  %244 = ashr i32 %243, 31
  %245 = load i32, ptr %6, align 4
  %246 = load ptr, ptr %5, align 8
  %247 = getelementptr inbounds %struct.ImageFormat, ptr %246, i32 0, i32 0
  %248 = getelementptr inbounds [4 x i32], ptr %247, i64 0, i64 3
  %249 = load i32, ptr %248, align 4
  %250 = and i32 %245, %249
  %251 = load ptr, ptr %5, align 8
  %252 = getelementptr inbounds %struct.ImageFormat, ptr %251, i32 0, i32 1
  %253 = getelementptr inbounds [4 x i32], ptr %252, i64 0, i64 3
  %254 = load i32, ptr %253, align 4
  %255 = sub nsw i32 0, %254
  %256 = shl i32 %250, %255
  %257 = and i32 %244, %256
  %258 = load ptr, ptr %5, align 8
  %259 = getelementptr inbounds %struct.ImageFormat, ptr %258, i32 0, i32 1
  %260 = getelementptr inbounds [4 x i32], ptr %259, i64 0, i64 3
  %261 = load i32, ptr %260, align 4
  %262 = ashr i32 %261, 31
  %263 = xor i32 %262, -1
  %264 = load i32, ptr %6, align 4
  %265 = load ptr, ptr %5, align 8
  %266 = getelementptr inbounds %struct.ImageFormat, ptr %265, i32 0, i32 0
  %267 = getelementptr inbounds [4 x i32], ptr %266, i64 0, i64 3
  %268 = load i32, ptr %267, align 4
  %269 = and i32 %264, %268
  %270 = load ptr, ptr %5, align 8
  %271 = getelementptr inbounds %struct.ImageFormat, ptr %270, i32 0, i32 1
  %272 = getelementptr inbounds [4 x i32], ptr %271, i64 0, i64 3
  %273 = load i32, ptr %272, align 4
  %274 = lshr i32 %269, %273
  %275 = and i32 %263, %274
  %276 = or i32 %257, %275
  %277 = or i32 %239, %276
  %278 = load ptr, ptr %5, align 8
  %279 = getelementptr inbounds %struct.ImageFormat, ptr %278, i32 0, i32 4
  %280 = load i32, ptr %279, align 8
  %281 = or i32 %277, %280
  store i32 %281, ptr %3, align 4
  br label %282

282:                                              ; preds = %126, %118, %117
  %283 = load i32, ptr %3, align 4
  ret i32 %283
}