; Function Attrs: mustprogress nofree norecurse nosync nounwind willreturn memory(read, inaccessiblemem: none) uwtable
define internal fastcc i32 @getRGBA(ptr nocapture noundef readonly %0, ptr nocapture noundef readonly %1) unnamed_addr #4 {
  %3 = getelementptr inbounds i8, ptr %1, i64 36
  %4 = load i32, ptr %3, align 4
  switch i32 %4, label %65 [
    i32 0, label %5
    i32 1, label %29
    i32 2, label %53
  ]

5:                                                ; preds = %2
  %6 = getelementptr inbounds i8, ptr %1, i64 32
  %7 = load i32, ptr %6, align 8
  switch i32 %7, label %65 [
    i32 4, label %8
    i32 3, label %13
    i32 2, label %19
    i32 1, label %25
  ]

8:                                                ; preds = %5
  %9 = load i8, ptr %0, align 1
  %10 = zext i8 %9 to i32
  %11 = shl nuw nsw i32 %10, 8
  %12 = getelementptr inbounds i8, ptr %0, i64 1
  br label %13

13:                                               ; preds = %8, %5
  %.071 = phi ptr [ %0, %5 ], [ %12, %8 ]
  %.0 = phi i32 [ 0, %5 ], [ %11, %8 ]
  %14 = load i8, ptr %.071, align 1
  %15 = zext i8 %14 to i32
  %16 = or disjoint i32 %.0, %15
  %17 = shl nuw nsw i32 %16, 8
  %18 = getelementptr inbounds i8, ptr %.071, i64 1
  br label %19

19:                                               ; preds = %13, %5
  %.172 = phi ptr [ %0, %5 ], [ %18, %13 ]
  %.1 = phi i32 [ 0, %5 ], [ %17, %13 ]
  %20 = load i8, ptr %.172, align 1
  %21 = zext i8 %20 to i32
  %22 = or disjoint i32 %.1, %21
  %23 = shl nuw i32 %22, 8
  %24 = getelementptr inbounds i8, ptr %.172, i64 1
  br label %25

25:                                               ; preds = %19, %5
  %.273 = phi ptr [ %0, %5 ], [ %24, %19 ]
  %.2 = phi i32 [ 0, %5 ], [ %23, %19 ]
  %26 = load i8, ptr %.273, align 1
  %27 = zext i8 %26 to i32
  %28 = or disjoint i32 %.2, %27
  br label %65

29:                                               ; preds = %2
  %30 = getelementptr inbounds i8, ptr %1, i64 32
  %31 = load i32, ptr %30, align 8
  switch i32 %31, label %65 [
    i32 4, label %32
    i32 3, label %37
    i32 2, label %43
    i32 1, label %49
  ]

32:                                               ; preds = %29
  %33 = load i8, ptr %0, align 1
  %34 = zext i8 %33 to i32
  %35 = shl nuw i32 %34, 24
  %36 = getelementptr inbounds i8, ptr %0, i64 1
  br label %37

37:                                               ; preds = %32, %29
  %.374 = phi ptr [ %0, %29 ], [ %36, %32 ]
  %.3 = phi i32 [ 0, %29 ], [ %35, %32 ]
  %38 = load i8, ptr %.374, align 1
  %39 = zext i8 %38 to i32
  %40 = shl nuw nsw i32 %39, 16
  %41 = or disjoint i32 %40, %.3
  %42 = getelementptr inbounds i8, ptr %.374, i64 1
  br label %43

43:                                               ; preds = %37, %29
  %.475 = phi ptr [ %0, %29 ], [ %42, %37 ]
  %.4 = phi i32 [ 0, %29 ], [ %41, %37 ]
  %44 = load i8, ptr %.475, align 1
  %45 = zext i8 %44 to i32
  %46 = shl nuw nsw i32 %45, 8
  %47 = or i32 %46, %.4
  %48 = getelementptr inbounds i8, ptr %.475, i64 1
  br label %49

49:                                               ; preds = %43, %29
  %.576 = phi ptr [ %0, %29 ], [ %48, %43 ]
  %.5 = phi i32 [ 0, %29 ], [ %47, %43 ]
  %50 = load i8, ptr %.576, align 1
  %51 = zext i8 %50 to i32
  %52 = or i32 %.5, %51
  br label %65

53:                                               ; preds = %2
  %54 = getelementptr inbounds i8, ptr %1, i64 32
  %55 = load i32, ptr %54, align 8
  switch i32 %55, label %65 [
    i32 4, label %56
    i32 3, label %58
    i32 2, label %59
    i32 1, label %62
  ]

56:                                               ; preds = %53
  %57 = load i32, ptr %0, align 4
  br label %65

58:                                               ; preds = %53
  br label %65

59:                                               ; preds = %53
  %60 = load i16, ptr %0, align 2
  %61 = zext i16 %60 to i32
  br label %65

62:                                               ; preds = %53
  %63 = load i8, ptr %0, align 1
  %64 = zext i8 %63 to i32
  br label %65

65:                                               ; preds = %53, %56, %58, %59, %62, %29, %49, %5, %25, %2
  %.6 = phi i32 [ 0, %2 ], [ 0, %53 ], [ %64, %62 ], [ %61, %59 ], [ -1, %58 ], [ %57, %56 ], [ 0, %29 ], [ %52, %49 ], [ 0, %5 ], [ %28, %25 ]
  %66 = getelementptr inbounds i8, ptr %1, i64 48
  %67 = load ptr, ptr %66, align 8
  %.not = icmp eq ptr %67, null
  br i1 %.not, label %76, label %68

68:                                               ; preds = %65
  %69 = getelementptr inbounds i8, ptr %1, i64 56
  %70 = load i32, ptr %69, align 8
  %71 = icmp eq i32 %.6, %70
  br i1 %71, label %118, label %72

72:                                               ; preds = %68
  %73 = zext i32 %.6 to i64
  %74 = getelementptr inbounds i32, ptr %67, i64 %73
  %75 = load i32, ptr %74, align 4
  br label %118

76:                                               ; preds = %65
  %77 = getelementptr inbounds i8, ptr %1, i64 16
  %78 = load i32, ptr %77, align 8
  %79 = load i32, ptr %1, align 8
  %80 = and i32 %79, %.6
  %81 = sub nsw i32 0, %78
  %82 = shl i32 %80, %81
  %isneg78 = icmp slt i32 %78, 0
  %83 = lshr i32 %80, %78
  %84 = select i1 %isneg78, i32 %82, i32 %83
  %85 = getelementptr inbounds i8, ptr %1, i64 20
  %86 = load i32, ptr %85, align 4
  %87 = getelementptr inbounds i8, ptr %1, i64 4
  %88 = load i32, ptr %87, align 4
  %89 = and i32 %88, %.6
  %90 = sub nsw i32 0, %86
  %91 = shl i32 %89, %90
  %isneg80 = icmp slt i32 %86, 0
  %92 = lshr i32 %89, %86
  %93 = select i1 %isneg80, i32 %91, i32 %92
  %94 = or i32 %93, %84
  %95 = getelementptr inbounds i8, ptr %1, i64 24
  %96 = load i32, ptr %95, align 8
  %97 = getelementptr inbounds i8, ptr %1, i64 8
  %98 = load i32, ptr %97, align 8
  %99 = and i32 %98, %.6
  %100 = sub nsw i32 0, %96
  %101 = shl i32 %99, %100
  %isneg82 = icmp slt i32 %96, 0
  %102 = lshr i32 %99, %96
  %103 = select i1 %isneg82, i32 %101, i32 %102
  %104 = or i32 %94, %103
  %105 = getelementptr inbounds i8, ptr %1, i64 28
  %106 = load i32, ptr %105, align 4
  %107 = getelementptr inbounds i8, ptr %1, i64 12
  %108 = load i32, ptr %107, align 4
  %109 = and i32 %108, %.6
  %110 = sub nsw i32 0, %106
  %111 = shl i32 %109, %110
  %isneg84 = icmp slt i32 %106, 0
  %112 = lshr i32 %109, %106
  %113 = select i1 %isneg84, i32 %111, i32 %112
  %114 = getelementptr inbounds i8, ptr %1, i64 40
  %115 = load i32, ptr %114, align 8
  %116 = or i32 %104, %115
  %117 = or i32 %116, %113
  br label %118

118:                                              ; preds = %68, %76, %72
  %.070 = phi i32 [ %75, %72 ], [ %117, %76 ], [ 0, %68 ]
  ret i32 %.070
}